target datalayout = "e-m:e-p270:32:32-p271:32:32-p272:64:64-i64:64-i128:128-f80:128-n8:16:32:64-S128"
target triple = "x86_64-pc-linux-gnu"

%struct.lzma_mf_s = type { ptr, i32, i32, i32, i32, i32, i32, i32, i32, i32, ptr, ptr, ptr, ptr, i32, i32, i32, i32, i32, i32, i32, i32, i32 }
%struct.lzma_next_coder_s = type { ptr, i64, i64, ptr, ptr, ptr, ptr, ptr, ptr, ptr }
%struct.lzma_coder = type { %struct.lzma_lz_encoder, %struct.lzma_mf_s, %struct.lzma_next_coder_s }
%struct.lzma_lz_encoder = type { ptr, ptr, ptr, ptr, ptr }
%struct.lzma_filter = type { i64, ptr }

; Function Attrs: nounwind uwtable
define internal i32 @lz_encoder_update(ptr noundef %0, ptr noundef %1, ptr noundef %2, ptr noundef %3) #0 {
  %5 = alloca i32, align 4
  %6 = alloca ptr, align 8
  %7 = alloca ptr, align 8
  %8 = alloca ptr, align 8
  %9 = alloca ptr, align 8
  %10 = alloca ptr, align 8
  %11 = alloca i32, align 4
  %12 = alloca i32, align 4
  store ptr %0, ptr %6, align 8, !tbaa !4
  store ptr %1, ptr %7, align 8, !tbaa !4
  store ptr %2, ptr %8, align 8, !tbaa !4
  store ptr %3, ptr %9, align 8, !tbaa !4
  call void @llvm.lifetime.start.p0(i64 8, ptr %10) #7
  %13 = load ptr, ptr %6, align 8, !tbaa !4
  store ptr %13, ptr %10, align 8, !tbaa !4
  %14 = load ptr, ptr %10, align 8, !tbaa !4
  %15 = getelementptr inbounds nuw %struct.lzma_coder, ptr %14, i32 0, i32 0
  %16 = getelementptr inbounds nuw %struct.lzma_lz_encoder, ptr %15, i32 0, i32 3
  %17 = load ptr, ptr %16, align 8, !tbaa !58
  %18 = icmp eq ptr %17, null
  br i1 %18, label %19, label %20

19:                                               ; preds = %4
  store i32 11, ptr %5, align 4
  store i32 1, ptr %11, align 4
  br label %48

20:                                               ; preds = %4
  br label %21

21:                                               ; preds = %20
  call void @llvm.lifetime.start.p0(i64 4, ptr %12) #7
  %22 = load ptr, ptr %10, align 8, !tbaa !4
  %23 = getelementptr inbounds nuw %struct.lzma_coder, ptr %22, i32 0, i32 0
  %24 = getelementptr inbounds nuw %struct.lzma_lz_encoder, ptr %23, i32 0, i32 3
  %25 = load ptr, ptr %24, align 8, !tbaa !58
  %26 = load ptr, ptr %10, align 8, !tbaa !4
  %27 = getelementptr inbounds nuw %struct.lzma_coder, ptr %26, i32 0, i32 0
  %28 = getelementptr inbounds nuw %struct.lzma_lz_encoder, ptr %27, i32 0, i32 0
  %29 = load ptr, ptr %28, align 8, !tbaa !53
  %30 = load ptr, ptr %9, align 8, !tbaa !4
  %31 = call i32 %25(ptr noundef %29, ptr noundef %30)
  store i32 %31, ptr %12, align 4, !tbaa !26
  %32 = load i32, ptr %12, align 4, !tbaa !26
  %33 = icmp ne i32 %32, 0
  br i1 %33, label %34, label %36

34:                                               ; preds = %21
  %35 = load i32, ptr %12, align 4, !tbaa !26
  store i32 %35, ptr %5, align 4
  store i32 1, ptr %11, align 4
  br label %37

36:                                               ; preds = %21
  store i32 0, ptr %11, align 4
  br label %37

37:                                               ; preds = %36, %34
  call void @llvm.lifetime.end.p0(i64 4, ptr %12) #7
  %38 = load i32, ptr %11, align 4
  switch i32 %38, label %48 [
    i32 0, label %39
  ]

39:                                               ; preds = %37
  br label %40

40:                                               ; preds = %39
  br label %41

41:                                               ; preds = %40
  %42 = load ptr, ptr %10, align 8, !tbaa !4
  %43 = getelementptr inbounds nuw %struct.lzma_coder, ptr %42, i32 0, i32 2
  %44 = load ptr, ptr %7, align 8, !tbaa !4
  %45 = load ptr, ptr %9, align 8, !tbaa !4
  %46 = getelementptr inbounds %struct.lzma_filter, ptr %45, i64 1
  %47 = call i32 @lzma_next_filter_update(ptr noundef %43, ptr noundef %44, ptr noundef %46)
  store i32 %47, ptr %5, align 4
  store i32 1, ptr %11, align 4
  br label %48

48:                                               ; preds = %41, %37, %19
  call void @llvm.lifetime.end.p0(i64 8, ptr %10) #7
  %49 = load i32, ptr %5, align 4
  ret i32 %49
}