; Function Attrs: nounwind uwtable
define internal i32 @lz_encoder_update(ptr noundef %0, ptr noundef %1, ptr readnone captures(none) %2, ptr noundef %3) #0 {
  %5 = getelementptr inbounds nuw i8, ptr %0, i64 24
  %6 = load ptr, ptr %5, align 8, !tbaa !76
  %7 = icmp eq ptr %6, null
  br i1 %7, label %15, label %8

8:                                                ; preds = %4
  %9 = load ptr, ptr %0, align 8, !tbaa !70
  %10 = tail call i32 %6(ptr noundef %9, ptr noundef %3) #7
  %.not = icmp eq i32 %10, 0
  br i1 %.not, label %11, label %15

11:                                               ; preds = %8
  %12 = getelementptr inbounds nuw i8, ptr %0, i64 160
  %13 = getelementptr inbounds nuw i8, ptr %3, i64 16
  %14 = tail call i32 @lzma_next_filter_update(ptr noundef nonnull %12, ptr noundef %1, ptr noundef nonnull %13) #7
  br label %15

15:                                               ; preds = %4, %8, %11
  %.0 = phi i32 [ %14, %11 ], [ %10, %8 ], [ 11, %4 ]
  ret i32 %.0
}